; Function Attrs: mustprogress nofree nosync nounwind willreturn memory(none) uwtable
define i64 @av_rescale_q_rnd(i64 noundef %0, i64 %1, i64 %2, i32 noundef %3) local_unnamed_addr #2 {
  %sext = shl i64 %1, 32
  %5 = ashr exact i64 %sext, 32
  %6 = ashr i64 %2, 32
  %7 = mul nsw i64 %5, %6
  %sext7 = shl i64 %2, 32
  %8 = ashr exact i64 %sext7, 32
  %9 = ashr i64 %1, 32
  %10 = mul nsw i64 %8, %9
  %11 = tail call i64 @av_rescale_rnd(i64 noundef %0, i64 noundef %7, i64 noundef %10, i32 noundef %3) #10
  ret i64 %11
}